target datalayout = "e-m:e-p270:32:32-p271:32:32-p272:64:64-i64:64-i128:128-f80:128-n8:16:32:64-S128"
target triple = "x86_64-unknown-linux-gnu"

%"class.node::Metadata" = type { %"struct.node::Metadata::Versions", %"struct.node::Metadata::Release", %"class.std::__cxx11::basic_string", %"class.std::__cxx11::basic_string" }
%"struct.node::Metadata::Versions" = type { %"class.std::__cxx11::basic_string", %"class.std::__cxx11::basic_string", %"class.std::__cxx11::basic_string", %"class.std::__cxx11::basic_string", %"class.std::__cxx11::basic_string", %"class.std::__cxx11::basic_string", %"class.std::__cxx11::basic_string", %"class.std::__cxx11::basic_string", %"class.std::__cxx11::basic_string", %"class.std::__cxx11::basic_string", %"class.std::__cxx11::basic_string", %"class.std::__cxx11::basic_string", %"class.std::__cxx11::basic_string", %"class.std::__cxx11::basic_string", %"class.std::__cxx11::basic_string", %"class.std::__cxx11::basic_string", %"class.std::__cxx11::basic_string", %"class.std::__cxx11::basic_string", %"class.std::__cxx11::basic_string", %"class.std::__cxx11::basic_string", %"class.std::__cxx11::basic_string", %"class.std::__cxx11::basic_string", %"class.std::__cxx11::basic_string", %"class.std::__cxx11::basic_string", %"class.std::__cxx11::basic_string" }
%"struct.node::Metadata::Release" = type { %"class.std::__cxx11::basic_string" }
%"class.std::__cxx11::basic_string" = type { %"struct.std::__cxx11::basic_string<char>::_Alloc_hider", i64, %union.anon }
%"struct.std::__cxx11::basic_string<char>::_Alloc_hider" = type { ptr }
%union.anon = type { i64, [8 x i8] }
%"class.std::vector.15" = type { %"struct.std::_Vector_base.16" }
%"struct.std::_Vector_base.16" = type { %"struct.std::_Vector_base<std::__cxx11::basic_string<char>, std::allocator<std::__cxx11::basic_string<char>>>::_Vector_impl" }
%"struct.std::_Vector_base<std::__cxx11::basic_string<char>, std::allocator<std::__cxx11::basic_string<char>>>::_Vector_impl" = type { %"struct.std::_Vector_base<std::__cxx11::basic_string<char>, std::allocator<std::__cxx11::basic_string<char>>>::_Vector_impl_data" }
%"struct.std::_Vector_base<std::__cxx11::basic_string<char>, std::allocator<std::__cxx11::basic_string<char>>>::_Vector_impl_data" = type { ptr, ptr, ptr }
%"struct.std::_Vector_base" = type { %"struct.std::_Vector_base<node::builtins::CodeCacheInfo, std::allocator<node::builtins::CodeCacheInfo>>::_Vector_impl" }
%"struct.std::_Vector_base<node::builtins::CodeCacheInfo, std::allocator<node::builtins::CodeCacheInfo>>::_Vector_impl" = type { %"struct.std::_Vector_base<node::builtins::CodeCacheInfo, std::allocator<node::builtins::CodeCacheInfo>>::_Vector_impl_data" }
%"struct.std::_Vector_base<node::builtins::CodeCacheInfo, std::allocator<node::builtins::CodeCacheInfo>>::_Vector_impl_data" = type { ptr, ptr, ptr }
%"struct.std::_Vector_base.10" = type { %"struct.std::_Vector_base<node::PropInfo, std::allocator<node::PropInfo>>::_Vector_impl" }
%"struct.std::_Vector_base<node::PropInfo, std::allocator<node::PropInfo>>::_Vector_impl" = type { %"struct.std::_Vector_base<node::PropInfo, std::allocator<node::PropInfo>>::_Vector_impl_data" }
%"struct.std::_Vector_base<node::PropInfo, std::allocator<node::PropInfo>>::_Vector_impl_data" = type { ptr, ptr, ptr }
%"struct.node::RealmSerializeInfo" = type { %"class.std::vector.15", %"class.std::vector.9", %"class.std::vector.9", i64 }
%"class.std::vector.9" = type { %"struct.std::_Vector_base.10" }
%"struct.node::EnvSerializeInfo" = type { %"struct.node::AsyncHooks::SerializeInfo", %"struct.node::TickInfo::SerializeInfo", %"struct.node::ImmediateInfo::SerializeInfo", i64, %"struct.node::performance::PerformanceState::SerializeInfo", i64, i64, i64, %"struct.node::RealmSerializeInfo" }
%"struct.node::AsyncHooks::SerializeInfo" = type { i64, i64, i64, i64, %"class.std::vector.21" }
%"class.std::vector.21" = type { %"struct.std::_Vector_base.22" }
%"struct.std::_Vector_base.22" = type { %"struct.std::_Vector_base<unsigned long, std::allocator<unsigned long>>::_Vector_impl" }
%"struct.std::_Vector_base<unsigned long, std::allocator<unsigned long>>::_Vector_impl" = type { %"struct.std::_Vector_base<unsigned long, std::allocator<unsigned long>>::_Vector_impl_data" }
%"struct.std::_Vector_base<unsigned long, std::allocator<unsigned long>>::_Vector_impl_data" = type { ptr, ptr, ptr }
%"struct.node::TickInfo::SerializeInfo" = type { i64 }
%"struct.node::ImmediateInfo::SerializeInfo" = type { i64 }
%"struct.node::performance::PerformanceState::SerializeInfo" = type { i64, i64, i64 }
%"class.v8::StartupData" = type { ptr, i32 }
%"struct.node::IsolateDataSerializeInfo" = type { %"class.std::vector.21", %"class.std::vector.9" }
%"struct.node::SnapshotMetadata" = type { i8, %"class.std::__cxx11::basic_string", %"class.std::__cxx11::basic_string", %"class.std::__cxx11::basic_string", i32, i32 }
%"struct.node::SnapshotData" = type { i32, %"struct.node::SnapshotMetadata", %"class.v8::StartupData", %"struct.node::IsolateDataSerializeInfo", %"struct.node::EnvSerializeInfo", %"class.std::vector" }
%"class.std::vector" = type { %"struct.std::_Vector_base" }

@_ZN4node11per_process8metadataE = external global %"class.node::Metadata", align 8
@stderr = external global ptr, align 8
@.str.107 = private unnamed_addr constant [120 x i8] c"Failed to load the startup snapshot because it was built withNode.js version %s and the current Node.js version is %s.\0A\00", align 1
@.str.108 = private unnamed_addr constant [12 x i8] c"v22.0.0-pre\00", align 1
@.str.109 = private unnamed_addr constant [106 x i8] c"Failed to load the startup snapshot because it was built witharchitecture %s and the architecture is %s.\0A\00", align 1
@.str.110 = private unnamed_addr constant [4 x i8] c"x64\00", align 1
@.str.111 = private unnamed_addr constant [106 x i8] c"Failed to load the startup snapshot because it was built withplatform %s and the current platform is %s.\0A\00", align 1
@.str.112 = private unnamed_addr constant [6 x i8] c"linux\00", align 1
@.str.113 = private unnamed_addr constant [151 x i8] c"Failed to load the startup snapshot because it was built with a different version of V8 or with different V8 configurations.\0AExpected tag %x, read %x\0A\00", align 1

; Function Attrs: mustprogress nounwind uwtable
define linkonce_odr dso_local noundef i32 @_ZNSt11char_traitsIcE7compareEPKcS2_m(ptr noundef %__s1, ptr noundef %__s2, i64 noundef %__n) #4 comdat align 2 {
entry:
  %retval = alloca i32, align 4
  %__s1.addr = alloca ptr, align 8
  %__s2.addr = alloca ptr, align 8
  %__n.addr = alloca i64, align 8
  store ptr %__s1, ptr %__s1.addr, align 8
  store ptr %__s2, ptr %__s2.addr, align 8
  store i64 %__n, ptr %__n.addr, align 8
  %0 = load i64, ptr %__n.addr, align 8
  %cmp = icmp eq i64 %0, 0
  br i1 %cmp, label %if.then, label %if.end

if.then:                                          ; preds = %entry
  store i32 0, ptr %retval, align 4
  br label %return

if.end:                                           ; preds = %entry
  %1 = load ptr, ptr %__s1.addr, align 8
  %2 = load ptr, ptr %__s2.addr, align 8
  %3 = load i64, ptr %__n.addr, align 8
  %call = call i32 @memcmp(ptr noundef %1, ptr noundef %2, i64 noundef %3) #3
  store i32 %call, ptr %retval, align 4
  br label %return

return:                                           ; preds = %if.end, %if.then
  %4 = load i32, ptr %retval, align 4
  ret i32 %4
}

; Function Attrs: mustprogress nounwind uwtable
define dso_local noundef i32 @_ZN4nodeanENS_13SnapshotFlagsES0_(i32 noundef %x, i32 noundef %y) #4 {
entry:
  %x.addr = alloca i32, align 4
  %y.addr = alloca i32, align 4
  store i32 %x, ptr %x.addr, align 4
  store i32 %y, ptr %y.addr, align 4
  %0 = load i32, ptr %x.addr, align 4
  %1 = load i32, ptr %y.addr, align 4
  %and = and i32 %0, %1
  ret i32 %and
}

; Function Attrs: mustprogress nounwind uwtable
define linkonce_odr dso_local noundef zeroext i1 @_ZSteqIcEN9__gnu_cxx11__enable_ifIXsr9__is_charIT_EE7__valueEbE6__typeERKNSt7__cxx1112basic_stringIS2_St11char_traitsIS2_ESaIS2_EEESC_(ptr noundef nonnull align 8 dereferenceable(32) %__lhs, ptr noundef nonnull align 8 dereferenceable(32) %__rhs) #4 comdat {
entry:
  %__lhs.addr = alloca ptr, align 8
  %__rhs.addr = alloca ptr, align 8
  store ptr %__lhs, ptr %__lhs.addr, align 8
  store ptr %__rhs, ptr %__rhs.addr, align 8
  %0 = load ptr, ptr %__lhs.addr, align 8
  %call = call noundef i64 @_ZNKSt7__cxx1112basic_stringIcSt11char_traitsIcESaIcEE4sizeEv(ptr noundef nonnull align 8 dereferenceable(32) %0) #3
  %1 = load ptr, ptr %__rhs.addr, align 8
  %call1 = call noundef i64 @_ZNKSt7__cxx1112basic_stringIcSt11char_traitsIcESaIcEE4sizeEv(ptr noundef nonnull align 8 dereferenceable(32) %1) #3
  %cmp = icmp eq i64 %call, %call1
  br i1 %cmp, label %land.rhs, label %land.end

land.rhs:                                         ; preds = %entry
  %2 = load ptr, ptr %__lhs.addr, align 8
  %call2 = call noundef ptr @_ZNKSt7__cxx1112basic_stringIcSt11char_traitsIcESaIcEE4dataEv(ptr noundef nonnull align 8 dereferenceable(32) %2) #3
  %3 = load ptr, ptr %__rhs.addr, align 8
  %call3 = call noundef ptr @_ZNKSt7__cxx1112basic_stringIcSt11char_traitsIcESaIcEE4dataEv(ptr noundef nonnull align 8 dereferenceable(32) %3) #3
  %4 = load ptr, ptr %__lhs.addr, align 8
  %call4 = call noundef i64 @_ZNKSt7__cxx1112basic_stringIcSt11char_traitsIcESaIcEE4sizeEv(ptr noundef nonnull align 8 dereferenceable(32) %4) #3
  %call5 = call noundef i32 @_ZNSt11char_traitsIcE7compareEPKcS2_m(ptr noundef %call2, ptr noundef %call3, i64 noundef %call4)
  %tobool = icmp ne i32 %call5, 0
  %lnot = xor i1 %tobool, true
  br label %land.end

land.end:                                         ; preds = %land.rhs, %entry
  %5 = phi i1 [ false, %entry ], [ %lnot, %land.rhs ]
  ret i1 %5
}

; Function Attrs: mustprogress nounwind uwtable
define dso_local noundef zeroext i1 @_ZN4node16WithoutCodeCacheERKNS_13SnapshotFlagsE(ptr noundef nonnull align 4 dereferenceable(4) %flags) #4 {
entry:
  %flags.addr = alloca ptr, align 8
  store ptr %flags, ptr %flags.addr, align 8
  %0 = load ptr, ptr %flags.addr, align 8
  %1 = load i32, ptr %0, align 4
  %call = call noundef i32 @_ZN4nodeanENS_13SnapshotFlagsES0_(i32 noundef %1, i32 noundef 1)
  %tobool = icmp ne i32 %call, 0
  ret i1 %tobool
}

; Function Attrs: mustprogress nounwind uwtable
define linkonce_odr dso_local noundef zeroext i1 @_ZStneIcSt11char_traitsIcESaIcEEbRKNSt7__cxx1112basic_stringIT_T0_T1_EESA_(ptr noundef nonnull align 8 dereferenceable(32) %__lhs, ptr noundef nonnull align 8 dereferenceable(32) %__rhs) #4 comdat {
entry:
  %__lhs.addr = alloca ptr, align 8
  %__rhs.addr = alloca ptr, align 8
  store ptr %__lhs, ptr %__lhs.addr, align 8
  store ptr %__rhs, ptr %__rhs.addr, align 8
  %0 = load ptr, ptr %__lhs.addr, align 8
  %1 = load ptr, ptr %__rhs.addr, align 8
  %call = call noundef zeroext i1 @_ZSteqIcEN9__gnu_cxx11__enable_ifIXsr9__is_charIT_EE7__valueEbE6__typeERKNSt7__cxx1112basic_stringIS2_St11char_traitsIS2_ESaIS2_EEESC_(ptr noundef nonnull align 8 dereferenceable(32) %0, ptr noundef nonnull align 8 dereferenceable(32) %1) #3
  %lnot = xor i1 %call, true
  ret i1 %lnot
}

; Function Attrs: mustprogress nounwind uwtable
define dso_local noundef zeroext i1 @_ZNK4node12SnapshotData5CheckEv(ptr noundef nonnull align 8 dereferenceable(416) %this) #4 align 2 {
entry:
  %retval = alloca i1, align 1
  %this.addr = alloca ptr, align 8
  %current_cache_version = alloca i32, align 4
  store ptr %this, ptr %this.addr, align 8
  %this1 = load ptr, ptr %this.addr, align 8
  %metadata = getelementptr inbounds %"struct.node::SnapshotData", ptr %this1, i32 0, i32 1
  %node_version = getelementptr inbounds %"struct.node::SnapshotMetadata", ptr %metadata, i32 0, i32 1
  %call = call noundef zeroext i1 @_ZStneIcSt11char_traitsIcESaIcEEbRKNSt7__cxx1112basic_stringIT_T0_T1_EESA_(ptr noundef nonnull align 8 dereferenceable(32) %node_version, ptr noundef nonnull align 8 dereferenceable(32) @_ZN4node11per_process8metadataE) #3
  br i1 %call, label %if.then, label %if.end

if.then:                                          ; preds = %entry
  %0 = load ptr, ptr @stderr, align 8
  %metadata2 = getelementptr inbounds %"struct.node::SnapshotData", ptr %this1, i32 0, i32 1
  %node_version3 = getelementptr inbounds %"struct.node::SnapshotMetadata", ptr %metadata2, i32 0, i32 1
  %call4 = call noundef ptr @_ZNKSt7__cxx1112basic_stringIcSt11char_traitsIcESaIcEE5c_strEv(ptr noundef nonnull align 8 dereferenceable(32) %node_version3) #3
  %call5 = call i32 (ptr, ptr, ...) @fprintf(ptr noundef %0, ptr noundef @.str.107, ptr noundef %call4, ptr noundef @.str.108)
  store i1 false, ptr %retval, align 1
  br label %return

if.end:                                           ; preds = %entry
  %metadata6 = getelementptr inbounds %"struct.node::SnapshotData", ptr %this1, i32 0, i32 1
  %node_arch = getelementptr inbounds %"struct.node::SnapshotMetadata", ptr %metadata6, i32 0, i32 2
  %call7 = call noundef zeroext i1 @_ZStneIcSt11char_traitsIcESaIcEEbRKNSt7__cxx1112basic_stringIT_T0_T1_EESA_(ptr noundef nonnull align 8 dereferenceable(32) %node_arch, ptr noundef nonnull align 8 dereferenceable(32) getelementptr inbounds (%"class.node::Metadata", ptr @_ZN4node11per_process8metadataE, i32 0, i32 2)) #3
  br i1 %call7, label %if.then8, label %if.end13

if.then8:                                         ; preds = %if.end
  %1 = load ptr, ptr @stderr, align 8
  %metadata9 = getelementptr inbounds %"struct.node::SnapshotData", ptr %this1, i32 0, i32 1
  %node_arch10 = getelementptr inbounds %"struct.node::SnapshotMetadata", ptr %metadata9, i32 0, i32 2
  %call11 = call noundef ptr @_ZNKSt7__cxx1112basic_stringIcSt11char_traitsIcESaIcEE5c_strEv(ptr noundef nonnull align 8 dereferenceable(32) %node_arch10) #3
  %call12 = call i32 (ptr, ptr, ...) @fprintf(ptr noundef %1, ptr noundef @.str.109, ptr noundef %call11, ptr noundef @.str.110)
  store i1 false, ptr %retval, align 1
  br label %return

if.end13:                                         ; preds = %if.end
  %metadata14 = getelementptr inbounds %"struct.node::SnapshotData", ptr %this1, i32 0, i32 1
  %node_platform = getelementptr inbounds %"struct.node::SnapshotMetadata", ptr %metadata14, i32 0, i32 3
  %call15 = call noundef zeroext i1 @_ZStneIcSt11char_traitsIcESaIcEEbRKNSt7__cxx1112basic_stringIT_T0_T1_EESA_(ptr noundef nonnull align 8 dereferenceable(32) %node_platform, ptr noundef nonnull align 8 dereferenceable(32) getelementptr inbounds (%"class.node::Metadata", ptr @_ZN4node11per_process8metadataE, i32 0, i32 3)) #3
  br i1 %call15, label %if.then16, label %if.end21

if.then16:                                        ; preds = %if.end13
  %2 = load ptr, ptr @stderr, align 8
  %metadata17 = getelementptr inbounds %"struct.node::SnapshotData", ptr %this1, i32 0, i32 1
  %node_platform18 = getelementptr inbounds %"struct.node::SnapshotMetadata", ptr %metadata17, i32 0, i32 3
  %call19 = call noundef ptr @_ZNKSt7__cxx1112basic_stringIcSt11char_traitsIcESaIcEE5c_strEv(ptr noundef nonnull align 8 dereferenceable(32) %node_platform18) #3
  %call20 = call i32 (ptr, ptr, ...) @fprintf(ptr noundef %2, ptr noundef @.str.111, ptr noundef %call19, ptr noundef @.str.112)
  store i1 false, ptr %retval, align 1
  br label %return

if.end21:                                         ; preds = %if.end13
  %metadata22 = getelementptr inbounds %"struct.node::SnapshotData", ptr %this1, i32 0, i32 1
  %type = getelementptr inbounds %"struct.node::SnapshotMetadata", ptr %metadata22, i32 0, i32 0
  %3 = load i8, ptr %type, align 8
  %cmp = icmp eq i8 %3, 1
  br i1 %cmp, label %land.lhs.true, label %if.end34

land.lhs.true:                                    ; preds = %if.end21
  %metadata23 = getelementptr inbounds %"struct.node::SnapshotData", ptr %this1, i32 0, i32 1
  %flags = getelementptr inbounds %"struct.node::SnapshotMetadata", ptr %metadata23, i32 0, i32 5
  %call24 = call noundef zeroext i1 @_ZN4node16WithoutCodeCacheERKNS_13SnapshotFlagsE(ptr noundef nonnull align 4 dereferenceable(4) %flags)
  br i1 %call24, label %if.end34, label %if.then25

if.then25:                                        ; preds = %land.lhs.true
  %call26 = call noundef i32 @_ZN2v814ScriptCompiler20CachedDataVersionTagEv()
  store i32 %call26, ptr %current_cache_version, align 4
  %metadata27 = getelementptr inbounds %"struct.node::SnapshotData", ptr %this1, i32 0, i32 1
  %v8_cache_version_tag = getelementptr inbounds %"struct.node::SnapshotMetadata", ptr %metadata27, i32 0, i32 4
  %4 = load i32, ptr %v8_cache_version_tag, align 8
  %5 = load i32, ptr %current_cache_version, align 4
  %cmp28 = icmp ne i32 %4, %5
  br i1 %cmp28, label %if.then29, label %if.end33

if.then29:                                        ; preds = %if.then25
  %6 = load ptr, ptr @stderr, align 8
  %7 = load i32, ptr %current_cache_version, align 4
  %metadata30 = getelementptr inbounds %"struct.node::SnapshotData", ptr %this1, i32 0, i32 1
  %v8_cache_version_tag31 = getelementptr inbounds %"struct.node::SnapshotMetadata", ptr %metadata30, i32 0, i32 4
  %8 = load i32, ptr %v8_cache_version_tag31, align 8
  %call32 = call i32 (ptr, ptr, ...) @fprintf(ptr noundef %6, ptr noundef @.str.113, i32 noundef %7, i32 noundef %8)
  store i1 false, ptr %retval, align 1
  br label %return

if.end33:                                         ; preds = %if.then25
  br label %if.end34

if.end34:                                         ; preds = %if.end33, %land.lhs.true, %if.end21
  store i1 true, ptr %retval, align 1
  br label %return

return:                                           ; preds = %if.end34, %if.then29, %if.then16, %if.then8, %if.then
  %9 = load i1, ptr %retval, align 1
  ret i1 %9
}