; Function Attrs: mustprogress nounwind uwtable
define dso_local noundef zeroext i1 @_ZNK4node12SnapshotData5CheckEv(ptr noundef nonnull align 8 dereferenceable(416) %this) local_unnamed_addr #3 align 2 {
entry:
  %metadata = getelementptr inbounds i8, ptr %this, i64 8
  %node_version = getelementptr inbounds i8, ptr %this, i64 16
  %call.i.i = tail call noundef i64 @_ZNKSt7__cxx1112basic_stringIcSt11char_traitsIcESaIcEE4sizeEv(ptr noundef nonnull align 8 dereferenceable(32) %node_version) #23
  %call1.i.i = tail call noundef i64 @_ZNKSt7__cxx1112basic_stringIcSt11char_traitsIcESaIcEE4sizeEv(ptr noundef nonnull align 8 dereferenceable(32) @_ZN4node11per_process8metadataE) #23
  %cmp.i.i = icmp eq i64 %call.i.i, %call1.i.i
  br i1 %cmp.i.i, label %land.rhs.i.i, label %if.then

land.rhs.i.i:                                     ; preds = %entry
  %call2.i.i = tail call noundef ptr @_ZNKSt7__cxx1112basic_stringIcSt11char_traitsIcESaIcEE4dataEv(ptr noundef nonnull align 8 dereferenceable(32) %node_version) #23
  %call3.i.i = tail call noundef ptr @_ZNKSt7__cxx1112basic_stringIcSt11char_traitsIcESaIcEE4dataEv(ptr noundef nonnull align 8 dereferenceable(32) @_ZN4node11per_process8metadataE) #23
  %call4.i.i = tail call noundef i64 @_ZNKSt7__cxx1112basic_stringIcSt11char_traitsIcESaIcEE4sizeEv(ptr noundef nonnull align 8 dereferenceable(32) %node_version) #23
  %cmp.i.i.i = icmp eq i64 %call4.i.i, 0
  br i1 %cmp.i.i.i, label %if.end, label %_ZStneIcSt11char_traitsIcESaIcEEbRKNSt7__cxx1112basic_stringIT_T0_T1_EESA_.exit

_ZStneIcSt11char_traitsIcESaIcEEbRKNSt7__cxx1112basic_stringIT_T0_T1_EESA_.exit: ; preds = %land.rhs.i.i
  %bcmp.i.i = tail call i32 @bcmp(ptr %call2.i.i, ptr %call3.i.i, i64 %call4.i.i)
  %.not = icmp eq i32 %bcmp.i.i, 0
  br i1 %.not, label %if.end, label %if.then

if.then:                                          ; preds = %entry, %_ZStneIcSt11char_traitsIcESaIcEEbRKNSt7__cxx1112basic_stringIT_T0_T1_EESA_.exit
  %0 = load ptr, ptr @stderr, align 8
  %call4 = tail call noundef ptr @_ZNKSt7__cxx1112basic_stringIcSt11char_traitsIcESaIcEE5c_strEv(ptr noundef nonnull align 8 dereferenceable(32) %node_version) #23
  %call5 = tail call i32 (ptr, ptr, ...) @fprintf(ptr noundef %0, ptr noundef nonnull @.str.107, ptr noundef %call4, ptr noundef nonnull @.str.108) #24
  br label %return

if.end:                                           ; preds = %land.rhs.i.i, %_ZStneIcSt11char_traitsIcESaIcEEbRKNSt7__cxx1112basic_stringIT_T0_T1_EESA_.exit
  %node_arch = getelementptr inbounds i8, ptr %this, i64 48
  %call.i.i2 = tail call noundef i64 @_ZNKSt7__cxx1112basic_stringIcSt11char_traitsIcESaIcEE4sizeEv(ptr noundef nonnull align 8 dereferenceable(32) %node_arch) #23
  %call1.i.i3 = tail call noundef i64 @_ZNKSt7__cxx1112basic_stringIcSt11char_traitsIcESaIcEE4sizeEv(ptr noundef nonnull align 8 dereferenceable(32) getelementptr inbounds (%"class.node::Metadata", ptr @_ZN4node11per_process8metadataE, i64 0, i32 2)) #23
  %cmp.i.i4 = icmp eq i64 %call.i.i2, %call1.i.i3
  br i1 %cmp.i.i4, label %land.rhs.i.i6, label %if.then8

land.rhs.i.i6:                                    ; preds = %if.end
  %call2.i.i7 = tail call noundef ptr @_ZNKSt7__cxx1112basic_stringIcSt11char_traitsIcESaIcEE4dataEv(ptr noundef nonnull align 8 dereferenceable(32) %node_arch) #23
  %call3.i.i8 = tail call noundef ptr @_ZNKSt7__cxx1112basic_stringIcSt11char_traitsIcESaIcEE4dataEv(ptr noundef nonnull align 8 dereferenceable(32) getelementptr inbounds (%"class.node::Metadata", ptr @_ZN4node11per_process8metadataE, i64 0, i32 2)) #23
  %call4.i.i9 = tail call noundef i64 @_ZNKSt7__cxx1112basic_stringIcSt11char_traitsIcESaIcEE4sizeEv(ptr noundef nonnull align 8 dereferenceable(32) %node_arch) #23
  %cmp.i.i.i10 = icmp eq i64 %call4.i.i9, 0
  br i1 %cmp.i.i.i10, label %if.end13, label %_ZStneIcSt11char_traitsIcESaIcEEbRKNSt7__cxx1112basic_stringIT_T0_T1_EESA_.exit13

_ZStneIcSt11char_traitsIcESaIcEEbRKNSt7__cxx1112basic_stringIT_T0_T1_EESA_.exit13: ; preds = %land.rhs.i.i6
  %bcmp.i.i12 = tail call i32 @bcmp(ptr %call2.i.i7, ptr %call3.i.i8, i64 %call4.i.i9)
  %.not35 = icmp eq i32 %bcmp.i.i12, 0
  br i1 %.not35, label %if.end13, label %if.then8

if.then8:                                         ; preds = %if.end, %_ZStneIcSt11char_traitsIcESaIcEEbRKNSt7__cxx1112basic_stringIT_T0_T1_EESA_.exit13
  %1 = load ptr, ptr @stderr, align 8
  %call11 = tail call noundef ptr @_ZNKSt7__cxx1112basic_stringIcSt11char_traitsIcESaIcEE5c_strEv(ptr noundef nonnull align 8 dereferenceable(32) %node_arch) #23
  %call12 = tail call i32 (ptr, ptr, ...) @fprintf(ptr noundef %1, ptr noundef nonnull @.str.109, ptr noundef %call11, ptr noundef nonnull @.str.110) #24
  br label %return

if.end13:                                         ; preds = %land.rhs.i.i6, %_ZStneIcSt11char_traitsIcESaIcEEbRKNSt7__cxx1112basic_stringIT_T0_T1_EESA_.exit13
  %node_platform = getelementptr inbounds i8, ptr %this, i64 80
  %call.i.i14 = tail call noundef i64 @_ZNKSt7__cxx1112basic_stringIcSt11char_traitsIcESaIcEE4sizeEv(ptr noundef nonnull align 8 dereferenceable(32) %node_platform) #23
  %call1.i.i15 = tail call noundef i64 @_ZNKSt7__cxx1112basic_stringIcSt11char_traitsIcESaIcEE4sizeEv(ptr noundef nonnull align 8 dereferenceable(32) getelementptr inbounds (%"class.node::Metadata", ptr @_ZN4node11per_process8metadataE, i64 0, i32 3)) #23
  %cmp.i.i16 = icmp eq i64 %call.i.i14, %call1.i.i15
  br i1 %cmp.i.i16, label %land.rhs.i.i18, label %if.then16

land.rhs.i.i18:                                   ; preds = %if.end13
  %call2.i.i19 = tail call noundef ptr @_ZNKSt7__cxx1112basic_stringIcSt11char_traitsIcESaIcEE4dataEv(ptr noundef nonnull align 8 dereferenceable(32) %node_platform) #23
  %call3.i.i20 = tail call noundef ptr @_ZNKSt7__cxx1112basic_stringIcSt11char_traitsIcESaIcEE4dataEv(ptr noundef nonnull align 8 dereferenceable(32) getelementptr inbounds (%"class.node::Metadata", ptr @_ZN4node11per_process8metadataE, i64 0, i32 3)) #23
  %call4.i.i21 = tail call noundef i64 @_ZNKSt7__cxx1112basic_stringIcSt11char_traitsIcESaIcEE4sizeEv(ptr noundef nonnull align 8 dereferenceable(32) %node_platform) #23
  %cmp.i.i.i22 = icmp eq i64 %call4.i.i21, 0
  br i1 %cmp.i.i.i22, label %if.end21, label %_ZStneIcSt11char_traitsIcESaIcEEbRKNSt7__cxx1112basic_stringIT_T0_T1_EESA_.exit25

_ZStneIcSt11char_traitsIcESaIcEEbRKNSt7__cxx1112basic_stringIT_T0_T1_EESA_.exit25: ; preds = %land.rhs.i.i18
  %bcmp.i.i24 = tail call i32 @bcmp(ptr %call2.i.i19, ptr %call3.i.i20, i64 %call4.i.i21)
  %.not36 = icmp eq i32 %bcmp.i.i24, 0
  br i1 %.not36, label %if.end21, label %if.then16

if.then16:                                        ; preds = %if.end13, %_ZStneIcSt11char_traitsIcESaIcEEbRKNSt7__cxx1112basic_stringIT_T0_T1_EESA_.exit25
  %2 = load ptr, ptr @stderr, align 8
  %call19 = tail call noundef ptr @_ZNKSt7__cxx1112basic_stringIcSt11char_traitsIcESaIcEE5c_strEv(ptr noundef nonnull align 8 dereferenceable(32) %node_platform) #23
  %call20 = tail call i32 (ptr, ptr, ...) @fprintf(ptr noundef %2, ptr noundef nonnull @.str.111, ptr noundef %call19, ptr noundef nonnull @.str.112) #24
  br label %return

if.end21:                                         ; preds = %land.rhs.i.i18, %_ZStneIcSt11char_traitsIcESaIcEEbRKNSt7__cxx1112basic_stringIT_T0_T1_EESA_.exit25
  %3 = load i8, ptr %metadata, align 8
  %cmp = icmp eq i8 %3, 1
  br i1 %cmp, label %land.lhs.true, label %return

land.lhs.true:                                    ; preds = %if.end21
  %flags = getelementptr inbounds i8, ptr %this, i64 116
  %4 = load i32, ptr %flags, align 4
  %and.i.i = and i32 %4, 1
  %tobool.i.not = icmp eq i32 %and.i.i, 0
  br i1 %tobool.i.not, label %if.then25, label %return

if.then25:                                        ; preds = %land.lhs.true
  %call26 = tail call noundef i32 @_ZN2v814ScriptCompiler20CachedDataVersionTagEv() #23
  %v8_cache_version_tag = getelementptr inbounds i8, ptr %this, i64 112
  %5 = load i32, ptr %v8_cache_version_tag, align 8
  %cmp28.not = icmp eq i32 %5, %call26
  br i1 %cmp28.not, label %return, label %if.then29

if.then29:                                        ; preds = %if.then25
  %6 = load ptr, ptr @stderr, align 8
  %call32 = tail call i32 (ptr, ptr, ...) @fprintf(ptr noundef %6, ptr noundef nonnull @.str.113, i32 noundef %call26, i32 noundef %5) #24
  br label %return

return:                                           ; preds = %if.end21, %land.lhs.true, %if.then25, %if.then29, %if.then16, %if.then8, %if.then
  %retval.0 = phi i1 [ false, %if.then ], [ false, %if.then8 ], [ false, %if.then16 ], [ false, %if.then29 ], [ true, %if.then25 ], [ true, %land.lhs.true ], [ true, %if.end21 ]
  ret i1 %retval.0
}